target datalayout = "e-m:e-p270:32:32-p271:32:32-p272:64:64-i64:64-i128:128-f80:128-n8:16:32:64-S128"
target triple = "x86_64-pc-linux-gnu"

%struct.cube = type { i8, i8, i16, i16, i16, ptr, ptr, ptr, ptr }

; Function Attrs: inlinehint nounwind uwtable
define internal i32 @VarWord(i32 noundef %0) #3 {
  %2 = alloca i32, align 4
  store i32 %0, ptr %2, align 4, !tbaa !3
  %3 = load i32, ptr %2, align 4, !tbaa !3
  %4 = ashr i32 %3, 5
  ret i32 %4
}

; Function Attrs: inlinehint nounwind uwtable
define internal i32 @VarBit(i32 noundef %0) #3 {
  %2 = alloca i32, align 4
  store i32 %0, ptr %2, align 4, !tbaa !3
  %3 = load i32, ptr %2, align 4, !tbaa !3
  %4 = and i32 %3, 31
  ret i32 %4
}

; Function Attrs: nounwind uwtable
define void @ExorVar(ptr noundef %0, i32 noundef %1, i32 noundef %2) #0 {
  %4 = alloca ptr, align 8
  %5 = alloca i32, align 4
  %6 = alloca i32, align 4
  %7 = alloca i32, align 4
  store ptr %0, ptr %4, align 8, !tbaa !11
  store i32 %1, ptr %5, align 4, !tbaa !3
  store i32 %2, ptr %6, align 4, !tbaa !3
  call void @llvm.lifetime.start.p0(i64 4, ptr %7) #4
  %8 = load i32, ptr %5, align 4, !tbaa !3
  %9 = shl i32 %8, 1
  store i32 %9, ptr %7, align 4, !tbaa !3
  %10 = load i32, ptr %6, align 4, !tbaa !3
  %11 = load i32, ptr %7, align 4, !tbaa !3
  %12 = call i32 @VarBit(i32 noundef %11)
  %13 = shl i32 %10, %12
  %14 = load ptr, ptr %4, align 8, !tbaa !11
  %15 = getelementptr inbounds nuw %struct.cube, ptr %14, i32 0, i32 5
  %16 = load ptr, ptr %15, align 8, !tbaa !14
  %17 = load i32, ptr %7, align 4, !tbaa !3
  %18 = call i32 @VarWord(i32 noundef %17)
  %19 = sext i32 %18 to i64
  %20 = getelementptr inbounds i32, ptr %16, i64 %19
  %21 = load i32, ptr %20, align 4, !tbaa !3
  %22 = xor i32 %21, %13
  store i32 %22, ptr %20, align 4, !tbaa !3
  call void @llvm.lifetime.end.p0(i64 4, ptr %7) #4
  ret void
}